BL51 BANKED LINKER/LOCATER V6.22.2.0                                                    03/13/2023  13:34:15  PAGE 1


BL51 BANKED LINKER/LOCATER V6.22.2.0, INVOKED BY:
E:\KEIL5\KEIL5\C51\BIN\BL51.EXE .\Objects\main.obj, .\Objects\led.obj, .\Objects\key.obj, .\Objects\EEPROM.obj, .\Object
>> s\sonic.obj, .\Objects\ds1302.obj, .\Objects\iic.obj, .\Objects\init.obj TO .\Objects\蓝桥杯国赛test3 PRINT (.\Listin
>> gs\蓝桥杯国赛test3.m51) RAMSIZE (256)


MEMORY MODEL: SMALL WITH FLOATING POINT ARITHMETIC


INPUT MODULES INCLUDED:
  .\Objects\main.obj (MAIN)
  .\Objects\led.obj (LED)
  .\Objects\key.obj (KEY)
  .\Objects\EEPROM.obj (EEPROM)
  .\Objects\sonic.obj (SONIC)
  .\Objects\ds1302.obj (DS1302)
  .\Objects\iic.obj (IIC)
  .\Objects\init.obj (INIT)
  E:\KEIL5\KEIL5\C51\LIB\C51FPS.LIB (?C?FPMUL)
  E:\KEIL5\KEIL5\C51\LIB\C51FPS.LIB (?C?FPCMP)
  E:\KEIL5\KEIL5\C51\LIB\C51FPS.LIB (?C?FCAST)
  E:\KEIL5\KEIL5\C51\LIB\C51FPS.LIB (?C?FPGETOPN)
  E:\KEIL5\KEIL5\C51\LIB\C51S.LIB (?C_STARTUP)
  E:\KEIL5\KEIL5\C51\LIB\C51S.LIB (?C?UIDIV)
  E:\KEIL5\KEIL5\C51\LIB\C51S.LIB (?C?LNEG)
  E:\KEIL5\KEIL5\C51\LIB\C51S.LIB (?C_INIT)


LINK MAP OF MODULE:  .\Objects\蓝桥杯国赛test3 (MAIN)


            TYPE    BASE      LENGTH    RELOCATION   SEGMENT NAME
            -----------------------------------------------------

            * * * * * * *   D A T A   M E M O R Y   * * * * * * *
            REG     0000H     0008H     ABSOLUTE     "REG BANK 0"
            DATA    0008H     000FH     UNIT         ?DT?LED
            DATA    0017H     0008H     UNIT         ?DT?MAIN
            DATA    001FH     0001H     UNIT         ?DT?EEPROM
            BIT     0020H.0   0000H.4   UNIT         ?BI?MAIN
            BIT     0020H.4   0000H.2   UNIT         ?BI?KEY
            BIT     0020H.6   0000H.1   UNIT         ?BI?SONIC
            BIT     0020H.7   0000H.1   UNIT         ?BI?INIT
            BIT     0021H.0   0000H.1   UNIT         _BIT_GROUP_
                    0021H.1   0000H.7                *** GAP ***
            DATA    0022H     0034H     UNIT         ?DT?KEY
            DATA    0056H     0007H     UNIT         ?DT?DS1302
            DATA    005DH     0006H     UNIT         ?DT?SONIC
            DATA    0063H     0006H     UNIT         _DATA_GROUP_
            DATA    0069H     0002H     UNIT         ?DT?INIT
            IDATA   006BH     0001H     UNIT         ?STACK

            * * * * * * *   C O D E   M E M O R Y   * * * * * * *
            CODE    0000H     0003H     ABSOLUTE     
            CODE    0003H     0007H     UNIT         ?PR?DELAY13US?SONIC
                    000AH     0001H                  *** GAP ***
            CODE    000BH     0003H     ABSOLUTE     
            CODE    000EH     026AH     UNIT         ?C?LIB_CODE
BL51 BANKED LINKER/LOCATER V6.22.2.0                                                  03/13/2023  13:34:15  PAGE 2


            CODE    0278H     00ECH     UNIT         ?PR?KEYSCAN?KEY
            CODE    0364H     00A9H     UNIT         ?PR?KEYDRIVER?KEY
            CODE    040DH     0090H     UNIT         ?C_INITSEG
            CODE    049DH     008CH     UNIT         ?C_C51STARTUP
            CODE    0529H     0072H     UNIT         ?PR?TIMER0_INT?MAIN
            CODE    059BH     0064H     UNIT         ?PR?SONIC?SONIC
            CODE    05FFH     0057H     UNIT         ?PR?_KEYACTION0?KEY
            CODE    0656H     0042H     UNIT         ?PR?SMGPASSWORD?LED
            CODE    0698H     0042H     UNIT         ?PR?SMGDISPLAY?LED
            CODE    06DAH     003DH     UNIT         ?PR?_READ_DS1302_BYTE?DS1302
            CODE    0717H     0039H     UNIT         ?PR?DOOROPENANDWARRING?INIT
            CODE    0750H     0037H     UNIT         ?PR?SMGTIMERSHOW?LED
            CODE    0787H     0037H     UNIT         ?PR?PASSWORDKEYMODE?KEY
            CODE    07BEH     0037H     UNIT         ?PR?PASSWORDCMD?INIT
            CODE    07F5H     0035H     UNIT         ?PR?_IIC_SENDBYTE?IIC
            CODE    082AH     0033H     UNIT         ?PR?DS1302INIT?DS1302
            CODE    085DH     002CH     UNIT         ?PR?LEDDISPLAY?LED
            CODE    0889H     002BH     UNIT         ?PR?BUZZDOOROPENCONTROL?MAIN
            CODE    08B4H     002BH     UNIT         ?PR?_READEEPROM?EEPROM
            CODE    08DFH     002AH     UNIT         ?PR?PASSWORDOVER?INIT
            CODE    0909H     0027H     UNIT         ?PR?AT24C02PASSWORDWRITE?EEPROM
            CODE    0930H     0026H     UNIT         ?PR?DS1302READ?DS1302
            CODE    0956H     0026H     UNIT         ?PR?IIC_RECBYTE?IIC
            CODE    097CH     0024H     UNIT         ?PR?AT24C02PASSWORDREAD?EEPROM
            CODE    09A0H     0022H     UNIT         ?PR?_WRITEEEPROM?EEPROM
            CODE    09C2H     0021H     UNIT         ?PR?PASSWORDSET?INIT
            CODE    09E3H     001CH     UNIT         ?PR?DOORMODCONTROL?MAIN
            CODE    09FFH     001CH     UNIT         ?PR?_WRITE_DS1302?DS1302
            CODE    0A1BH     001AH     UNIT         ?PR?SENDWAVE?SONIC
            CODE    0A35H     001AH     UNIT         ?PR?PASSWORDBUFFRESET?INIT
            CODE    0A4FH     0019H     UNIT         ?PR?AT24C02FIRSTREAD?EEPROM
            CODE    0A68H     0018H     UNIT         ?PR?PASSWORDRESET?INIT
            CODE    0A80H     0017H     UNIT         ?PR?MAIN?MAIN
            CODE    0A97H     0017H     UNIT         ?PR?LEDBUZZINIT?INIT
            CODE    0AAEH     0015H     UNIT         ?PR?TIMER0INIT?INIT
            CODE    0AC3H     0014H     UNIT         ?PR?READDATA?MAIN
            CODE    0AD7H     0014H     UNIT         ?PR?_WRITE_DS1302_BYTE?DS1302
            CODE    0AEBH     0011H     UNIT         ?PR?IIC_WAITACK?IIC
            CODE    0AFCH     0010H     UNIT         ?CO?KEY
            CODE    0B0CH     000FH     UNIT         ?PR?IIC_START?IIC
            CODE    0B1BH     000EH     UNIT         ?CO?DS1302
            CODE    0B29H     000DH     UNIT         ?PR?_HC138Y?INIT
            CODE    0B36H     000CH     UNIT         ?PR?_IIC_DELAY?IIC
            CODE    0B42H     000CH     UNIT         ?PR?IIC_STOP?IIC
            CODE    0B4EH     000BH     UNIT         ?CO?LED
            CODE    0B59H     000AH     UNIT         ?PR?DOORCONTROL?MAIN
            CODE    0B63H     0009H     UNIT         ?PR?DELAY5MS?EEPROM
            CODE    0B6CH     0003H     UNIT         ?PR?_KEYACTION1?KEY



OVERLAY MAP OF MODULE:   .\Objects\蓝桥杯国赛test3 (MAIN)


SEGMENT                                    BIT_GROUP          DATA_GROUP 
  +--> CALLED SEGMENT                   START    LENGTH     START    LENGTH
---------------------------------------------------------------------------
BL51 BANKED LINKER/LOCATER V6.22.2.0                                                  03/13/2023  13:34:15  PAGE 3


?PR?TIMER0_INT?MAIN                     -----    -----      -----    -----
  +--> ?PR?BUZZDOOROPENCONTROL?MAIN
  +--> ?PR?DOOROPENANDWARRING?INIT
  +--> ?PR?KEYSCAN?KEY
  +--> ?PR?SMGDISPLAY?LED
  +--> ?PR?LEDDISPLAY?LED

?PR?DOOROPENANDWARRING?INIT             -----    -----      -----    -----
  +--> ?PR?_HC138Y?INIT

?PR?SMGDISPLAY?LED                      -----    -----      -----    -----
  +--> ?PR?_HC138Y?INIT

?PR?LEDDISPLAY?LED                      -----    -----      -----    -----
  +--> ?PR?_HC138Y?INIT

*** NEW ROOT ***************************************************

?C_C51STARTUP                           -----    -----      -----    -----
  +--> ?PR?MAIN?MAIN
  +--> ?C_INITSEG

?PR?MAIN?MAIN                           -----    -----      -----    -----
  +--> ?PR?LEDBUZZINIT?INIT
  +--> ?PR?TIMER0INIT?INIT
  +--> ?PR?DS1302INIT?DS1302
  +--> ?PR?AT24C02FIRSTREAD?EEPROM
  +--> ?PR?DOORCONTROL?MAIN
  +--> ?PR?READDATA?MAIN
  +--> ?PR?KEYDRIVER?KEY

?PR?LEDBUZZINIT?INIT                    -----    -----      -----    -----
  +--> ?PR?_HC138Y?INIT

?PR?DS1302INIT?DS1302                   -----    -----      0063H    0001H
  +--> ?PR?_WRITE_DS1302_BYTE?DS1302
  +--> ?CO?DS1302

?PR?_WRITE_DS1302_BYTE?DS1302           -----    -----      -----    -----
  +--> ?PR?_WRITE_DS1302?DS1302

?PR?AT24C02FIRSTREAD?EEPROM             -----    -----      -----    -----
  +--> ?PR?_READEEPROM?EEPROM
  +--> ?PR?PASSWORDRESET?INIT
  +--> ?PR?_WRITEEEPROM?EEPROM
  +--> ?PR?AT24C02PASSWORDREAD?EEPROM

?PR?_READEEPROM?EEPROM                  -----    -----      0064H    0002H
  +--> ?PR?IIC_START?IIC
  +--> ?PR?_IIC_SENDBYTE?IIC
  +--> ?PR?IIC_WAITACK?IIC
  +--> ?PR?IIC_RECBYTE?IIC
  +--> ?PR?IIC_STOP?IIC

?PR?IIC_START?IIC                       -----    -----      -----    -----
  +--> ?PR?_IIC_DELAY?IIC

BL51 BANKED LINKER/LOCATER V6.22.2.0                                                  03/13/2023  13:34:15  PAGE 4


?PR?_IIC_SENDBYTE?IIC                   -----    -----      -----    -----
  +--> ?PR?_IIC_DELAY?IIC

?PR?IIC_WAITACK?IIC                     0021H.0  0000H.1    -----    -----
  +--> ?PR?_IIC_DELAY?IIC

?PR?IIC_RECBYTE?IIC                     -----    -----      -----    -----
  +--> ?PR?_IIC_DELAY?IIC

?PR?IIC_STOP?IIC                        -----    -----      -----    -----
  +--> ?PR?_IIC_DELAY?IIC

?PR?PASSWORDRESET?INIT                  -----    -----      -----    -----
  +--> ?PR?AT24C02PASSWORDWRITE?EEPROM

?PR?AT24C02PASSWORDWRITE?EEPROM         -----    -----      0066H    0001H
  +--> ?PR?_WRITEEEPROM?EEPROM
  +--> ?PR?DELAY5MS?EEPROM

?PR?_WRITEEEPROM?EEPROM                 -----    -----      0067H    0002H
  +--> ?PR?IIC_START?IIC
  +--> ?PR?_IIC_SENDBYTE?IIC
  +--> ?PR?IIC_WAITACK?IIC
  +--> ?PR?IIC_STOP?IIC

?PR?AT24C02PASSWORDREAD?EEPROM          -----    -----      0063H    0001H
  +--> ?PR?_READEEPROM?EEPROM

?PR?DOORCONTROL?MAIN                    -----    -----      -----    -----
  +--> ?PR?SMGTIMERSHOW?LED
  +--> ?PR?SMGPASSWORD?LED

?PR?SMGTIMERSHOW?LED                    -----    -----      -----    -----
  +--> ?CO?LED

?PR?SMGPASSWORD?LED                     -----    -----      -----    -----
  +--> ?CO?LED

?PR?READDATA?MAIN                       -----    -----      -----    -----
  +--> ?PR?DS1302READ?DS1302
  +--> ?PR?DOORMODCONTROL?MAIN
  +--> ?PR?SONIC?SONIC

?PR?DS1302READ?DS1302                   -----    -----      0063H    0001H
  +--> ?CO?DS1302
  +--> ?PR?_READ_DS1302_BYTE?DS1302

?PR?_READ_DS1302_BYTE?DS1302            -----    -----      -----    -----
  +--> ?PR?_WRITE_DS1302?DS1302

?PR?SONIC?SONIC                         -----    -----      -----    -----
  +--> ?PR?SENDWAVE?SONIC

?PR?SENDWAVE?SONIC                      -----    -----      -----    -----
  +--> ?PR?DELAY13US?SONIC

?PR?KEYDRIVER?KEY                       -----    -----      0063H    0002H
BL51 BANKED LINKER/LOCATER V6.22.2.0                                                  03/13/2023  13:34:15  PAGE 5


  +--> ?CO?KEY
  +--> ?PR?_KEYACTION0?KEY
  +--> ?PR?_KEYACTION1?KEY

?PR?_KEYACTION0?KEY                     -----    -----      0065H    0001H
  +--> ?PR?PASSWORDKEYMODE?KEY
  +--> ?PR?PASSWORDRESET?INIT
  +--> ?PR?PASSWORDBUFFRESET?INIT

?PR?PASSWORDKEYMODE?KEY                 -----    -----      -----    -----
  +--> ?PR?PASSWORDOVER?INIT
  +--> ?PR?PASSWORDCMD?INIT
  +--> ?PR?PASSWORDBUFFRESET?INIT
  +--> ?PR?PASSWORDSET?INIT

?PR?PASSWORDOVER?INIT                   -----    -----      0066H    0001H
  +--> ?PR?PASSWORDBUFFRESET?INIT

?PR?PASSWORDCMD?INIT                    -----    -----      0066H    0001H
  +--> ?PR?PASSWORDBUFFRESET?INIT

?PR?PASSWORDSET?INIT                    -----    -----      -----    -----
  +--> ?PR?AT24C02PASSWORDWRITE?EEPROM
  +--> ?PR?PASSWORDBUFFRESET?INIT

?PR?_KEYACTION1?KEY                     -----    -----      0065H    0001H



SYMBOL TABLE OF MODULE:  .\Objects\蓝桥杯国赛test3 (MAIN)

  VALUE           TYPE          NAME
  ----------------------------------

  -------         MODULE        MAIN
  C:0000H         SYMBOL        _ICE_DUMMY_
  D:0080H         PUBLIC        P0
  D:0090H         PUBLIC        P1
  D:00A0H         PUBLIC        P2
  D:00B0H         PUBLIC        P3
  D:00C0H         PUBLIC        P4
  D:00C8H         PUBLIC        P5
  D:00E8H         PUBLIC        P6
  D:00F8H         PUBLIC        P7
  B:0020H.0       PUBLIC        Door_Open
  D:00A8H         PUBLIC        IE
  B:0020H.1       PUBLIC        flag100ms
  B:0020H.2       PUBLIC        flag200ms
  B:0020H.3       PUBLIC        Door_Mod
  D:00B8H         PUBLIC        IP
  C:09E3H         PUBLIC        DoorModControl
  D:00D8H         PUBLIC        CCON
  C:0A80H         PUBLIC        main
  D:0098H         PUBLIC        SCON
  D:0088H         PUBLIC        TCON
  D:0019H         PUBLIC        PassWord
  C:0889H         PUBLIC        BuzzDoorOpenControl
BL51 BANKED LINKER/LOCATER V6.22.2.0                                                  03/13/2023  13:34:15  PAGE 6


  C:0529H         PUBLIC        Timer0_Int
  C:0AC3H         PUBLIC        ReadData
  D:00D0H         PUBLIC        PSW
  C:0B59H         PUBLIC        DoorControl
  -------         PROC          MAIN
  C:0A80H         LINE#         17
  C:0A80H         LINE#         18
  C:0A80H         LINE#         19
  C:0A83H         LINE#         20
  C:0A86H         LINE#         21
  C:0A89H         LINE#         22
  C:0A8CH         LINE#         25
  C:0A8CH         LINE#         26
  C:0A8CH         LINE#         27
  C:0A8FH         LINE#         28
  C:0A92H         LINE#         29
  C:0A95H         LINE#         30
  -------         ENDPROC       MAIN
  -------         PROC          TIMER0_INT
  -------         DO            
  D:0017H         SYMBOL        cnt
  -------         ENDDO         
  C:0529H         LINE#         33
  C:0546H         LINE#         37
  C:054EH         LINE#         38
  C:055CH         LINE#         39
  C:055CH         LINE#         40
  C:055EH         LINE#         41
  C:0561H         LINE#         42
  C:0561H         LINE#         43
  C:056CH         LINE#         44
  C:056CH         LINE#         45
  C:056EH         LINE#         46
  C:0574H         LINE#         47
  C:0574H         LINE#         49
  C:0577H         LINE#         50
  C:057AH         LINE#         51
  C:057DH         LINE#         52
  C:0580H         LINE#         54
  -------         ENDPROC       TIMER0_INT
  -------         PROC          BUZZDOOROPENCONTROL
  C:0889H         LINE#         56
  C:0889H         LINE#         57
  C:0889H         LINE#         58
  C:088CH         LINE#         59
  C:088CH         LINE#         60
  C:088EH         LINE#         61
  C:0899H         LINE#         62
  C:0899H         LINE#         63
  C:089CH         LINE#         64
  C:089EH         LINE#         65
  C:089EH         LINE#         66
  C:089EH         LINE#         67
  C:08A1H         LINE#         68
  C:08A1H         LINE#         69
  C:08A3H         LINE#         70
  C:08AEH         LINE#         71
BL51 BANKED LINKER/LOCATER V6.22.2.0                                                  03/13/2023  13:34:15  PAGE 7


  C:08AEH         LINE#         72
  C:08B1H         LINE#         73
  C:08B3H         LINE#         74
  C:08B3H         LINE#         75
  C:08B3H         LINE#         76
  -------         ENDPROC       BUZZDOOROPENCONTROL
  -------         PROC          READDATA
  C:0AC3H         LINE#         78
  C:0AC3H         LINE#         79
  C:0AC3H         LINE#         80
  C:0AC6H         LINE#         81
  C:0AC6H         LINE#         82
  C:0AC8H         LINE#         83
  C:0ACBH         LINE#         84
  C:0ACEH         LINE#         85
  C:0ACEH         LINE#         86
  C:0AD1H         LINE#         87
  C:0AD1H         LINE#         88
  C:0AD3H         LINE#         89
  C:0AD6H         LINE#         90
  C:0AD6H         LINE#         92
  -------         ENDPROC       READDATA
  -------         PROC          DOORCONTROL
  C:0B59H         LINE#         94
  C:0B59H         LINE#         95
  C:0B59H         LINE#         96
  C:0B5CH         LINE#         97
  C:0B5CH         LINE#         98
  C:0B5FH         LINE#         99
  C:0B5FH         LINE#         101
  C:0B5FH         LINE#         102
  C:0B62H         LINE#         103
  C:0B62H         LINE#         104
  -------         ENDPROC       DOORCONTROL
  -------         PROC          DOORMODCONTROL
  C:09E3H         LINE#         106
  C:09E3H         LINE#         107
  C:09E3H         LINE#         108
  C:09F9H         LINE#         109
  C:09F9H         LINE#         110
  C:09FBH         LINE#         111
  C:09FCH         LINE#         113
  C:09FCH         LINE#         114
  C:09FEH         LINE#         115
  C:09FEH         LINE#         117
  -------         ENDPROC       DOORMODCONTROL
  -------         ENDMOD        MAIN

  -------         MODULE        LED
  C:0000H         SYMBOL        _ICE_DUMMY_
  D:0080H         PUBLIC        P0
  D:0090H         PUBLIC        P1
  C:0656H         PUBLIC        SmgPassword
  D:00A0H         PUBLIC        P2
  D:00B0H         PUBLIC        P3
  C:0698H         PUBLIC        SmgDisplay
  D:00C0H         PUBLIC        P4
BL51 BANKED LINKER/LOCATER V6.22.2.0                                                  03/13/2023  13:34:15  PAGE 8


  D:00C8H         PUBLIC        P5
  B:0080H.0       PUBLIC        LED0
  D:00E8H         PUBLIC        P6
  B:0080H.1       PUBLIC        LED1
  D:00F8H         PUBLIC        P7
  B:0080H.2       PUBLIC        LED2
  B:0080H.3       PUBLIC        LED3
  B:0080H.6       PUBLIC        LED6
  B:0080H.7       PUBLIC        LED7
  D:00A8H         PUBLIC        IE
  D:00B8H         PUBLIC        IP
  D:00D8H         PUBLIC        CCON
  D:0098H         PUBLIC        SCON
  D:0088H         PUBLIC        TCON
  D:0009H         PUBLIC        PassWordBuff
  C:0750H         PUBLIC        SmgTimerShow
  C:0B4EH         PUBLIC        Led_Number
  C:085DH         PUBLIC        LedDisplay
  D:00D0H         PUBLIC        PSW
  D:000FH         PUBLIC        Led_Buff
  -------         PROC          LEDDISPLAY
  C:085DH         LINE#         19
  C:085DH         LINE#         20
  C:085DH         LINE#         21
  C:0860H         LINE#         23
  C:0863H         LINE#         24
  C:0863H         LINE#         25
  C:0865H         LINE#         26
  C:0865H         LINE#         27
  C:0868H         LINE#         28
  C:0868H         LINE#         29
  C:086AH         LINE#         30
  C:086AH         LINE#         31
  C:086DH         LINE#         32
  C:086DH         LINE#         33
  C:086FH         LINE#         34
  C:086FH         LINE#         35
  C:0872H         LINE#         36
  C:0872H         LINE#         37
  C:0874H         LINE#         38
  C:0874H         LINE#         39
  C:0877H         LINE#         40
  C:0877H         LINE#         41
  C:0879H         LINE#         42
  C:0879H         LINE#         43
  C:087DH         LINE#         44
  C:087DH         LINE#         45
  C:087FH         LINE#         46
  C:087FH         LINE#         47
  C:0884H         LINE#         48
  -------         ENDPROC       LEDDISPLAY
  -------         PROC          SMGTIMERSHOW
  C:0750H         LINE#         52
  C:0750H         LINE#         53
  C:0750H         LINE#         54
  C:075BH         LINE#         55
  C:0762H         LINE#         56
BL51 BANKED LINKER/LOCATER V6.22.2.0                                                  03/13/2023  13:34:15  PAGE 9


  C:0765H         LINE#         57
  C:076DH         LINE#         58
  C:0774H         LINE#         59
  C:0777H         LINE#         60
  C:077FH         LINE#         61
  C:0786H         LINE#         62
  -------         ENDPROC       SMGTIMERSHOW
  -------         PROC          SMGPASSWORD
  C:0656H         LINE#         64
  C:0656H         LINE#         65
  C:0656H         LINE#         66
  C:065DH         LINE#         67
  C:065DH         LINE#         68
  C:0660H         LINE#         69
  C:0660H         LINE#         70
  C:0662H         LINE#         71
  C:0668H         LINE#         72
  C:0668H         LINE#         73
  C:066BH         LINE#         74
  C:066EH         LINE#         75
  C:0670H         LINE#         77
  C:0670H         LINE#         78
  C:0673H         LINE#         79
  C:0676H         LINE#         80
  C:0676H         LINE#         81
  C:067EH         LINE#         82
  C:0683H         LINE#         83
  C:0688H         LINE#         84
  C:068DH         LINE#         85
  C:0692H         LINE#         86
  C:0697H         LINE#         88
  -------         ENDPROC       SMGPASSWORD
  -------         PROC          SMGDISPLAY
  -------         DO            
  D:0008H         SYMBOL        i
  -------         ENDDO         
  C:0698H         LINE#         92
  C:0698H         LINE#         93
  C:0698H         LINE#         96
  C:069BH         LINE#         97
  C:06A0H         LINE#         98
  C:06AFH         LINE#         99
  C:06B4H         LINE#         100
  C:06B7H         LINE#         101
  C:06BCH         LINE#         102
  C:06C4H         LINE#         103
  C:06C9H         LINE#         105
  C:06CBH         LINE#         106
  C:06D6H         LINE#         107
  C:06D6H         LINE#         108
  C:06D9H         LINE#         109
  C:06D9H         LINE#         110
  -------         ENDPROC       SMGDISPLAY
  -------         ENDMOD        LED

  -------         MODULE        KEY
  C:0000H         SYMBOL        _ICE_DUMMY_
BL51 BANKED LINKER/LOCATER V6.22.2.0                                                  03/13/2023  13:34:15  PAGE 10


  D:0080H         PUBLIC        P0
  D:0090H         PUBLIC        P1
  D:00A0H         PUBLIC        P2
  D:00B0H         PUBLIC        P3
  D:00C0H         PUBLIC        P4
  D:00C8H         PUBLIC        P5
  D:00E8H         PUBLIC        P6
  D:00F8H         PUBLIC        P7
  C:0787H         PUBLIC        PasswordKeyMode
  D:00A8H         PUBLIC        IE
  D:0043H         PUBLIC        Error_Cnt
  D:00B8H         PUBLIC        IP
  C:0364H         PUBLIC        KeyDriver
  D:00D8H         PUBLIC        CCON
  C:0AFCH         PUBLIC        Key_Map
  C:0278H         PUBLIC        KeyScan
  D:0044H         PUBLIC        Key_Sta
  D:0098H         PUBLIC        SCON
  D:0088H         PUBLIC        TCON
  B:0020H.4       PUBLIC        Password_Right
  C:05FFH         PUBLIC        _KeyAction0
  C:0B6CH         PUBLIC        _KeyAction1
  D:0054H         PUBLIC        Password_Mode
  D:0055H         PUBLIC        Number_Code
  B:00B0H.0       PUBLIC        KEY_OUT_0
  B:00B0H.1       PUBLIC        KEY_OUT_1
  B:00B0H.2       PUBLIC        KEY_OUT_2
  B:00B0H.3       PUBLIC        KEY_OUT_3
  B:0020H.5       PUBLIC        Password_Over
  B:00C0H.4       PUBLIC        KEY_IN_0
  B:00C0H.2       PUBLIC        KEY_IN_1
  B:00B0H.5       PUBLIC        KEY_IN_2
  B:00B0H.4       PUBLIC        KEY_IN_3
  D:00D0H         PUBLIC        PSW
  -------         PROC          _KEYACTION0
  D:0065H         SYMBOL        keycode
  C:05FFH         LINE#         23
  C:0601H         LINE#         24
  C:0601H         LINE#         25
  C:0606H         LINE#         26
  C:0606H         LINE#         27
  C:0609H         LINE#         28
  C:0609H         LINE#         29
  C:060CH         LINE#         30
  C:060CH         LINE#         31
  C:060CH         LINE#         32
  C:0611H         LINE#         33
  C:0611H         LINE#         34
  C:0614H         LINE#         35
  C:0614H         LINE#         36
  C:0618H         LINE#         37
  C:0618H         LINE#         38
  C:061AH         LINE#         39
  C:061DH         LINE#         40
  C:061DH         LINE#         41
  C:061DH         LINE#         42
  C:061DH         LINE#         43
BL51 BANKED LINKER/LOCATER V6.22.2.0                                                  03/13/2023  13:34:15  PAGE 11


  C:061FH         LINE#         44
  C:0624H         LINE#         45
  C:0624H         LINE#         46
  C:0627H         LINE#         47
  C:0627H         LINE#         48
  C:062CH         LINE#         49
  C:062CH         LINE#         50
  C:062FH         LINE#         51
  C:062FH         LINE#         52
  C:0632H         LINE#         53
  C:0635H         LINE#         54
  C:0635H         LINE#         55
  C:0635H         LINE#         57
  C:0635H         LINE#         58
  C:0638H         LINE#         59
  C:0638H         LINE#         60
  C:0643H         LINE#         61
  C:0643H         LINE#         62
  C:0652H         LINE#         63
  C:0653H         LINE#         65
  C:0653H         LINE#         66
  C:0655H         LINE#         67
  C:0655H         LINE#         68
  C:0655H         LINE#         69
  C:0655H         LINE#         70
  -------         ENDPROC       _KEYACTION0
  -------         PROC          _KEYACTION1
  D:0065H         SYMBOL        keycode
  C:0B6CH         LINE#         72
  C:0B6EH         LINE#         73
  C:0B6EH         LINE#         74
  C:0B6EH         LINE#         75
  C:0B6EH         LINE#         77
  C:0B6EH         LINE#         79
  -------         ENDPROC       _KEYACTION1
  -------         PROC          PASSWORDKEYMODE
  C:0787H         LINE#         81
  C:0787H         LINE#         82
  C:0787H         LINE#         83
  C:078AH         LINE#         84
  C:078EH         LINE#         85
  C:078EH         LINE#         86
  C:0791H         LINE#         87
  C:0794H         LINE#         88
  C:0794H         LINE#         89
  C:0796H         LINE#         90
  C:0799H         LINE#         91
  C:0799H         LINE#         92
  C:0799H         LINE#         93
  C:079FH         LINE#         94
  C:079FH         LINE#         95
  C:07A2H         LINE#         96
  C:07A5H         LINE#         97
  C:07A5H         LINE#         98
  C:07A8H         LINE#         99
  C:07ABH         LINE#         100
  C:07ADH         LINE#         101
BL51 BANKED LINKER/LOCATER V6.22.2.0                                                  03/13/2023  13:34:15  PAGE 12


  C:07ADH         LINE#         102
  C:07AEH         LINE#         103
  C:07B4H         LINE#         104
  C:07B4H         LINE#         105
  C:07B7H         LINE#         106
  C:07B7H         LINE#         107
  C:07BAH         LINE#         108
  C:07BDH         LINE#         109
  C:07BDH         LINE#         110
  C:07BDH         LINE#         111
  -------         ENDPROC       PASSWORDKEYMODE
  -------         PROC          KEYDRIVER
  -------         DO            
  D:0063H         SYMBOL        i
  D:0064H         SYMBOL        j
  D:0022H         SYMBOL        backup
  -------         ENDDO         
  C:0364H         LINE#         113
  C:0364H         LINE#         114
  C:0364H         LINE#         120
  C:0375H         LINE#         121
  C:0375H         LINE#         122
  C:0386H         LINE#         123
  C:0386H         LINE#         124
  C:03A3H         LINE#         125
  C:03A3H         LINE#         126
  C:03A6H         LINE#         127
  C:03A6H         LINE#         128
  C:03C6H         LINE#         129
  C:03C8H         LINE#         131
  C:03C8H         LINE#         132
  C:03E8H         LINE#         133
  C:03E8H         LINE#         134
  C:0402H         LINE#         135
  C:0402H         LINE#         136
  C:0407H         LINE#         137
  C:040CH         LINE#         138
  -------         ENDPROC       KEYDRIVER
  -------         PROC          KEYSCAN
  -------         DO            
  D:0007H         SYMBOL        i
  D:0032H         SYMBOL        Key_Out
  D:0033H         SYMBOL        Key_Buff
  -------         ENDDO         
  C:0278H         LINE#         140
  C:0278H         LINE#         141
  C:0278H         LINE#         142
  C:0278H         LINE#         149
  C:0296H         LINE#         150
  C:02B4H         LINE#         151
  C:02D2H         LINE#         152
  C:02F0H         LINE#         154
  C:02FCH         LINE#         155
  C:02FCH         LINE#         156
  C:030EH         LINE#         157
  C:030EH         LINE#         158
  C:031AH         LINE#         159
BL51 BANKED LINKER/LOCATER V6.22.2.0                                                  03/13/2023  13:34:15  PAGE 13


  C:031CH         LINE#         160
  C:0322H         LINE#         161
  C:0322H         LINE#         162
  C:032EH         LINE#         163
  C:032EH         LINE#         164
  C:0331H         LINE#         166
  C:0333H         LINE#         167
  C:033EH         LINE#         168
  C:033EH         LINE#         169
  C:0341H         LINE#         170
  C:0341H         LINE#         172
  C:0350H         LINE#         173
  C:0350H         LINE#         174
  C:0355H         LINE#         175
  C:035AH         LINE#         176
  C:035FH         LINE#         177
  C:0363H         LINE#         178
  C:0363H         LINE#         179
  C:0363H         LINE#         181
  -------         ENDPROC       KEYSCAN
  -------         ENDMOD        KEY

  -------         MODULE        EEPROM
  C:0000H         SYMBOL        _ICE_DUMMY_
  D:0080H         PUBLIC        P0
  D:0090H         PUBLIC        P1
  D:00A0H         PUBLIC        P2
  D:00B0H         PUBLIC        P3
  D:00C0H         PUBLIC        P4
  D:00C8H         PUBLIC        P5
  D:00E8H         PUBLIC        P6
  D:00F8H         PUBLIC        P7
  C:0B63H         PUBLIC        Delay5ms
  C:0909H         PUBLIC        AT24C02PasswordWrite
  D:00A8H         PUBLIC        IE
  D:00B8H         PUBLIC        IP
  D:00D8H         PUBLIC        CCON
  D:001FH         PUBLIC        FirstBuf
  C:0A4FH         PUBLIC        AT24C02FirstRead
  D:0098H         PUBLIC        SCON
  D:0088H         PUBLIC        TCON
  C:08B4H         PUBLIC        _ReadEEPROM
  C:09A0H         PUBLIC        _WriteEEPROM
  C:097CH         PUBLIC        AT24C02PasswordRead
  D:00D0H         PUBLIC        PSW
  -------         PROC          DELAY5MS
  -------         DO            
  D:0007H         SYMBOL        i
  D:0006H         SYMBOL        j
  -------         ENDDO         
  C:0B63H         LINE#         9
  C:0B63H         LINE#         10
  C:0B63H         LINE#         13
  C:0B65H         LINE#         14
  C:0B67H         LINE#         16
  C:0B67H         LINE#         17
  C:0B69H         LINE#         18
BL51 BANKED LINKER/LOCATER V6.22.2.0                                                  03/13/2023  13:34:15  PAGE 14


  C:0B6BH         LINE#         19
  -------         ENDPROC       DELAY5MS
  -------         PROC          AT24C02FIRSTREAD
  C:0A4FH         LINE#         21
  C:0A4FH         LINE#         22
  C:0A4FH         LINE#         23
  C:0A56H         LINE#         24
  C:0A5BH         LINE#         25
  C:0A5BH         LINE#         26
  C:0A5EH         LINE#         27
  C:0A65H         LINE#         28
  C:0A65H         LINE#         29
  -------         ENDPROC       AT24C02FIRSTREAD
  -------         PROC          AT24C02PASSWORDREAD
  -------         DO            
  D:0063H         SYMBOL        i
  -------         ENDDO         
  C:097CH         LINE#         32
  C:097CH         LINE#         33
  C:097CH         LINE#         34
  C:097FH         LINE#         36
  C:098CH         LINE#         37
  C:098CH         LINE#         38
  C:099BH         LINE#         39
  C:099FH         LINE#         40
  -------         ENDPROC       AT24C02PASSWORDREAD
  -------         PROC          AT24C02PASSWORDWRITE
  -------         DO            
  D:0066H         SYMBOL        i
  -------         ENDDO         
  C:0909H         LINE#         42
  C:0909H         LINE#         43
  C:0909H         LINE#         44
  C:090CH         LINE#         46
  C:0919H         LINE#         47
  C:0919H         LINE#         48
  C:0928H         LINE#         49
  C:092BH         LINE#         50
  C:092FH         LINE#         51
  -------         ENDPROC       AT24C02PASSWORDWRITE
  -------         PROC          _READEEPROM
  D:0064H         SYMBOL        addr
  -------         DO            
  D:0065H         SYMBOL        temp
  -------         ENDDO         
  C:08B4H         LINE#         55
  C:08B6H         LINE#         56
  C:08B6H         LINE#         58
  C:08B9H         LINE#         59
  C:08BEH         LINE#         60
  C:08C1H         LINE#         61
  C:08C6H         LINE#         62
  C:08C9H         LINE#         64
  C:08CCH         LINE#         65
  C:08D1H         LINE#         66
  C:08D4H         LINE#         67
  C:08D9H         LINE#         68
BL51 BANKED LINKER/LOCATER V6.22.2.0                                                  03/13/2023  13:34:15  PAGE 15


  C:08DCH         LINE#         70
  C:08DEH         LINE#         71
  -------         ENDPROC       _READEEPROM
  -------         PROC          _WRITEEEPROM
  D:0067H         SYMBOL        addr
  D:0068H         SYMBOL        dat
  C:09A0H         LINE#         74
  C:09A4H         LINE#         75
  C:09A4H         LINE#         76
  C:09A7H         LINE#         77
  C:09ACH         LINE#         78
  C:09AFH         LINE#         79
  C:09B4H         LINE#         80
  C:09B7H         LINE#         81
  C:09BCH         LINE#         82
  C:09BFH         LINE#         83
  -------         ENDPROC       _WRITEEEPROM
  -------         ENDMOD        EEPROM

  -------         MODULE        SONIC
  C:0000H         SYMBOL        _ICE_DUMMY_
  C:059BH         PUBLIC        Sonic
  D:0080H         PUBLIC        P0
  D:0090H         PUBLIC        P1
  D:00A0H         PUBLIC        P2
  D:00B0H         PUBLIC        P3
  D:00C0H         PUBLIC        P4
  D:00C8H         PUBLIC        P5
  D:00E8H         PUBLIC        P6
  D:00F8H         PUBLIC        P7
  D:00A8H         PUBLIC        IE
  D:00B8H         PUBLIC        IP
  C:0A1BH         PUBLIC        SendWave
  D:00D8H         PUBLIC        CCON
  B:0090H.1       PUBLIC        RX
  B:0090H.0       PUBLIC        TX
  D:0098H         PUBLIC        SCON
  D:0088H         PUBLIC        TCON
  C:0003H         PUBLIC        Delay13us
  B:0088H.7       PUBLIC        TF1
  D:008DH         PUBLIC        TH1
  D:008BH         PUBLIC        TL1
  B:0088H.6       PUBLIC        TR1
  D:005DH         PUBLIC        Sonic_Time
  D:005FH         PUBLIC        Sonic_Dist
  B:0020H.6       PUBLIC        Sonic_Far
  D:00D0H         PUBLIC        PSW
  -------         PROC          DELAY13US
  -------         DO            
  D:0007H         SYMBOL        i
  -------         ENDDO         
  C:0003H         LINE#         9
  C:0003H         LINE#         10
  C:0003H         LINE#         13
  C:0004H         LINE#         14
  C:0005H         LINE#         15
  C:0007H         LINE#         16
BL51 BANKED LINKER/LOCATER V6.22.2.0                                                  03/13/2023  13:34:15  PAGE 16


  C:0009H         LINE#         17
  -------         ENDPROC       DELAY13US
  -------         PROC          SENDWAVE
  -------         DO            
  D:0006H         SYMBOL        i
  -------         ENDDO         
  C:0A1BH         LINE#         21
  C:0A1BH         LINE#         22
  C:0A1BH         LINE#         23
  C:0A1DH         LINE#         25
  C:0A27H         LINE#         26
  C:0A27H         LINE#         27
  C:0A29H         LINE#         28
  C:0A2CH         LINE#         29
  C:0A2EH         LINE#         30
  C:0A31H         LINE#         31
  C:0A34H         LINE#         32
  -------         ENDPROC       SENDWAVE
  -------         PROC          SONIC
  C:059BH         LINE#         34
  C:059BH         LINE#         35
  C:059BH         LINE#         36
  C:059EH         LINE#         37
  C:05A0H         LINE#         39
  C:05A3H         LINE#         40
  C:05A5H         LINE#         41
  C:05ABH         LINE#         42
  C:05ADH         LINE#         44
  C:05B0H         LINE#         45
  C:05B0H         LINE#         46
  C:05B2H         LINE#         47
  C:05B4H         LINE#         48
  C:05B5H         LINE#         50
  C:05B5H         LINE#         51
  C:05B7H         LINE#         52
  C:05BEH         LINE#         53
  C:05C7H         LINE#         54
  C:05E0H         LINE#         55
  C:05E6H         LINE#         56
  C:05E6H         LINE#         57
  C:05FCH         LINE#         58
  C:05FCH         LINE#         59
  C:05FEH         LINE#         60
  C:05FEH         LINE#         61
  C:05FEH         LINE#         62
  C:05FEH         LINE#         63
  -------         ENDPROC       SONIC
  -------         ENDMOD        SONIC

  -------         MODULE        DS1302
  C:0000H         SYMBOL        _ICE_DUMMY_
  D:0080H         PUBLIC        P0
  D:0056H         PUBLIC        TimerData
  D:0090H         PUBLIC        P1
  D:00A0H         PUBLIC        P2
  D:00B0H         PUBLIC        P3
  D:00C0H         PUBLIC        P4
BL51 BANKED LINKER/LOCATER V6.22.2.0                                                  03/13/2023  13:34:15  PAGE 17


  D:00C8H         PUBLIC        P5
  D:00E8H         PUBLIC        P6
  D:00F8H         PUBLIC        P7
  D:00A8H         PUBLIC        IE
  C:082AH         PUBLIC        Ds1302Init
  D:00B8H         PUBLIC        IP
  D:00D8H         PUBLIC        CCON
  D:0098H         PUBLIC        SCON
  D:0088H         PUBLIC        TCON
  C:0B22H         PUBLIC        Ds1302_Read_Byte
  C:06DAH         PUBLIC        _Read_Ds1302_Byte
  B:00A0H.3       PUBLIC        SDA
  B:0090H.7       PUBLIC        SCK
  C:0B1BH         PUBLIC        Ds1302_Write_Byte
  C:0AD7H         PUBLIC        _Write_Ds1302_Byte
  C:09FFH         PUBLIC        _Write_Ds1302
  B:0090H.3       PUBLIC        RST
  D:00D0H         PUBLIC        PSW
  C:0930H         PUBLIC        Ds1302Read
  -------         PROC          DS1302INIT
  -------         DO            
  D:0063H         SYMBOL        i
  -------         ENDDO         
  C:082AH         LINE#         25
  C:082AH         LINE#         26
  C:082AH         LINE#         27
  C:082DH         LINE#         28
  C:0833H         LINE#         30
  C:0841H         LINE#         31
  C:0841H         LINE#         32
  C:0852H         LINE#         33
  C:0856H         LINE#         35
  -------         ENDPROC       DS1302INIT
  -------         PROC          DS1302READ
  -------         DO            
  D:0063H         SYMBOL        i
  -------         ENDDO         
  C:0930H         LINE#         38
  C:0930H         LINE#         39
  C:0930H         LINE#         40
  C:0933H         LINE#         42
  C:0940H         LINE#         43
  C:0940H         LINE#         44
  C:0951H         LINE#         45
  C:0955H         LINE#         46
  -------         ENDPROC       DS1302READ
  -------         PROC          _WRITE_DS1302
  D:0007H         SYMBOL        temp
  -------         DO            
  D:0006H         SYMBOL        i
  -------         ENDDO         
  C:09FFH         LINE#         52
  C:09FFH         LINE#         53
  C:09FFH         LINE#         55
  C:0A0BH         LINE#         56
  C:0A0BH         LINE#         57
  C:0A0DH         LINE#         58
BL51 BANKED LINKER/LOCATER V6.22.2.0                                                  03/13/2023  13:34:15  PAGE 18


  C:0A11H         LINE#         59
  C:0A15H         LINE#         60
  C:0A17H         LINE#         61
  C:0A1AH         LINE#         62
  -------         ENDPROC       _WRITE_DS1302
  -------         PROC          _WRITE_DS1302_BYTE
  D:0007H         SYMBOL        address
  D:0005H         SYMBOL        dat
  C:0AD7H         LINE#         64
  C:0AD7H         LINE#         65
  C:0AD7H         LINE#         66
  C:0ADAH         LINE#         67
  C:0ADDH         LINE#         68
  C:0AE0H         LINE#         69
  C:0AE3H         LINE#         70
  C:0AE8H         LINE#         71
  C:0AEAH         LINE#         72
  -------         ENDPROC       _WRITE_DS1302_BYTE
  -------         PROC          _READ_DS1302_BYTE
  D:0007H         SYMBOL        address
  -------         DO            
  D:0007H         SYMBOL        i
  D:0005H         SYMBOL        temp
  -------         ENDDO         
  C:06DAH         LINE#         74
  C:06DAH         LINE#         75
  C:06DAH         LINE#         76
  C:06DCH         LINE#         77
  C:06DFH         LINE#         78
  C:06E2H         LINE#         79
  C:06E5H         LINE#         80
  C:06E8H         LINE#         81
  C:06F4H         LINE#         82
  C:06F4H         LINE#         83
  C:06F6H         LINE#         84
  C:06FAH         LINE#         85
  C:06FDH         LINE#         86
  C:0700H         LINE#         87
  C:0702H         LINE#         88
  C:0705H         LINE#         89
  C:0708H         LINE#         90
  C:070BH         LINE#         91
  C:070EH         LINE#         92
  C:0711H         LINE#         93
  C:0714H         LINE#         94
  C:0716H         LINE#         95
  -------         ENDPROC       _READ_DS1302_BYTE
  -------         ENDMOD        DS1302

  -------         MODULE        IIC
  C:0000H         SYMBOL        _ICE_DUMMY_
  D:0080H         PUBLIC        P0
  D:0090H         PUBLIC        P1
  D:00A0H         PUBLIC        P2
  D:00B0H         PUBLIC        P3
  D:00C0H         PUBLIC        P4
  D:00C8H         PUBLIC        P5
BL51 BANKED LINKER/LOCATER V6.22.2.0                                                  03/13/2023  13:34:15  PAGE 19


  D:00E8H         PUBLIC        P6
  D:00F8H         PUBLIC        P7
  D:00A8H         PUBLIC        IE
  D:00B8H         PUBLIC        IP
  D:00D8H         PUBLIC        CCON
  C:0B3AH         PUBLIC        _IIC_Delay
  D:0098H         PUBLIC        SCON
  D:0088H         PUBLIC        TCON
  C:0B0CH         PUBLIC        IIC_Start
  B:00A0H.1       PUBLIC        SDA
  C:07F5H         PUBLIC        _IIC_SendByte
  C:0AEBH         PUBLIC        IIC_WaitAck
  C:0B42H         PUBLIC        IIC_Stop
  B:00A0H.0       PUBLIC        SCL
  C:0956H         PUBLIC        IIC_RecByte
  D:00D0H         PUBLIC        PSW
  C:0B36H         SYMBOL        L?0020
  -------         PROC          L?0019
  -------         ENDPROC       L?0019
  C:0B36H         SYMBOL        L?0020
  -------         PROC          _IIC_DELAY
  D:0007H         SYMBOL        i
  C:0B3AH         LINE#         19
  C:0B3AH         LINE#         20
  C:0B3AH         LINE#         21
  C:0B3BH         LINE#         22
  C:0B41H         LINE#         23
  -------         ENDPROC       _IIC_DELAY
  -------         PROC          IIC_START
  C:0B0CH         LINE#         25
  C:0B0CH         LINE#         26
  C:0B0CH         LINE#         27
  C:0B0EH         LINE#         28
  C:0B0EH         LINE#         29
  C:0B11H         LINE#         30
  C:0B13H         LINE#         31
  C:0B18H         LINE#         32
  C:0B1AH         LINE#         33
  -------         ENDPROC       IIC_START
  -------         PROC          IIC_STOP
  C:0B42H         LINE#         36
  C:0B42H         LINE#         37
  C:0B42H         LINE#         38
  C:0B44H         LINE#         39
  C:0B44H         LINE#         40
  C:0B47H         LINE#         41
  C:0B49H         LINE#         42
  -------         ENDPROC       IIC_STOP
  -------         PROC          IIC_WAITACK
  -------         DO            
  B:0021H.0       SYMBOL        ackbit
  -------         ENDDO         
  C:0AEBH         LINE#         59
  C:0AEBH         LINE#         60
  C:0AEBH         LINE#         63
  C:0AEBH         LINE#         64
  C:0AEEH         LINE#         65
BL51 BANKED LINKER/LOCATER V6.22.2.0                                                  03/13/2023  13:34:15  PAGE 20


  C:0AF2H         LINE#         66
  C:0AF4H         LINE#         67
  C:0AF9H         LINE#         68
  C:0AFBH         LINE#         69
  -------         ENDPROC       IIC_WAITACK
  -------         PROC          _IIC_SENDBYTE
  D:0005H         SYMBOL        byt
  -------         DO            
  D:0004H         SYMBOL        i
  -------         ENDDO         
  C:07F5H         LINE#         72
  C:07F7H         LINE#         73
  C:07F7H         LINE#         76
  C:0803H         LINE#         77
  C:0803H         LINE#         78
  C:0805H         LINE#         79
  C:080AH         LINE#         80
  C:0812H         LINE#         81
  C:0814H         LINE#         82
  C:0819H         LINE#         83
  C:081BH         LINE#         84
  C:081FH         LINE#         85
  C:0824H         LINE#         86
  C:0827H         LINE#         87
  C:0829H         LINE#         88
  -------         ENDPROC       _IIC_SENDBYTE
  -------         PROC          IIC_RECBYTE
  -------         DO            
  D:0004H         SYMBOL        i
  D:0005H         SYMBOL        da
  -------         ENDDO         
  C:0956H         LINE#         91
  C:0956H         LINE#         92
  C:0956H         LINE#         94
  C:0962H         LINE#         95
  C:0962H         LINE#         96
  C:0962H         LINE#         97
  C:0965H         LINE#         98
  C:0969H         LINE#         99
  C:096FH         LINE#         100
  C:0971H         LINE#         101
  C:0976H         LINE#         102
  C:0979H         LINE#         103
  C:097BH         LINE#         104
  -------         ENDPROC       IIC_RECBYTE
  -------         ENDMOD        IIC

  -------         MODULE        INIT
  C:0000H         SYMBOL        _ICE_DUMMY_
  B:0080H.4       PUBLIC        RELAY
  D:0080H         PUBLIC        P0
  D:0090H         PUBLIC        P1
  C:0B29H         PUBLIC        _HC138Y
  D:00A0H         PUBLIC        P2
  D:00B0H         PUBLIC        P3
  D:00C0H         PUBLIC        P4
  D:00C8H         PUBLIC        P5
BL51 BANKED LINKER/LOCATER V6.22.2.0                                                  03/13/2023  13:34:15  PAGE 21


  B:00A8H.7       PUBLIC        EA
  D:00E8H         PUBLIC        P6
  C:09C2H         PUBLIC        PasswordSet
  D:00F8H         PUBLIC        P7
  D:00A8H         PUBLIC        IE
  D:00B8H         PUBLIC        IP
  D:0069H         PUBLIC        Buzz_Time
  C:0717H         PUBLIC        DoorOpenAndWarring
  D:00D8H         PUBLIC        CCON
  D:0098H         PUBLIC        SCON
  D:0089H         PUBLIC        TMOD
  D:0088H         PUBLIC        TCON
  D:008EH         PUBLIC        AUXR
  B:00A8H.1       PUBLIC        ET0
  B:0088H.5       PUBLIC        TF0
  C:0AAEH         PUBLIC        Timer0Init
  B:0080H.6       PUBLIC        BUZZ
  D:008CH         PUBLIC        TH0
  D:008AH         PUBLIC        TL0
  B:0088H.4       PUBLIC        TR0
  C:0A97H         PUBLIC        LedBuzzInit
  C:0A68H         PUBLIC        PasswordReset
  C:0A35H         PUBLIC        PasswordBuffReset
  B:0020H.7       PUBLIC        Buzz_Warring
  C:07BEH         PUBLIC        PasswordCmd
  C:08DFH         PUBLIC        PasswordOver
  D:00D0H         PUBLIC        PSW
  D:006AH         PUBLIC        Door_Open_Time
  -------         PROC          DOOROPENANDWARRING
  C:0717H         LINE#         12
  C:0717H         LINE#         13
  C:0717H         LINE#         14
  C:071AH         LINE#         16
  C:071DH         LINE#         17
  C:071DH         LINE#         18
  C:071FH         LINE#         19
  C:0721H         LINE#         21
  C:0721H         LINE#         22
  C:0723H         LINE#         23
  C:0723H         LINE#         25
  C:072EH         LINE#         26
  C:072EH         LINE#         27
  C:0731H         LINE#         28
  C:0733H         LINE#         29
  C:0735H         LINE#         30
  C:0735H         LINE#         31
  C:0740H         LINE#         32
  C:0740H         LINE#         33
  C:0742H         LINE#         34
  C:0744H         LINE#         36
  C:0744H         LINE#         37
  C:0746H         LINE#         38
  C:0746H         LINE#         40
  C:074BH         LINE#         41
  -------         ENDPROC       DOOROPENANDWARRING
  -------         PROC          PASSWORDOVER
  -------         DO            
BL51 BANKED LINKER/LOCATER V6.22.2.0                                                  03/13/2023  13:34:15  PAGE 22


  D:0066H         SYMBOL        i
  -------         ENDDO         
  C:08DFH         LINE#         44
  C:08DFH         LINE#         45
  C:08DFH         LINE#         48
  C:08EDH         LINE#         49
  C:08EDH         LINE#         50
  C:08F7H         LINE#         51
  C:08F7H         LINE#         53
  C:08F7H         LINE#         55
  C:08F7H         LINE#         56
  C:08F9H         LINE#         57
  C:08FCH         LINE#         58
  C:08FCH         LINE#         59
  C:08FCH         LINE#         60
  C:0902H         LINE#         61
  C:0902H         LINE#         62
  C:0904H         LINE#         63
  C:0904H         LINE#         64
  C:0908H         LINE#         65
  -------         ENDPROC       PASSWORDOVER
  -------         PROC          PASSWORDSET
  -------         DO            
  D:0007H         SYMBOL        i
  -------         ENDDO         
  C:09C2H         LINE#         68
  C:09C2H         LINE#         69
  C:09C2H         LINE#         70
  C:09C4H         LINE#         72
  C:09CEH         LINE#         73
  C:09CEH         LINE#         74
  C:09DAH         LINE#         75
  C:09DDH         LINE#         76
  C:09E0H         LINE#         77
  -------         ENDPROC       PASSWORDSET
  -------         PROC          PASSWORDCMD
  -------         DO            
  D:0066H         SYMBOL        i
  -------         ENDDO         
  C:07BEH         LINE#         81
  C:07BEH         LINE#         82
  C:07BEH         LINE#         83
  C:07C1H         LINE#         84
  C:07CEH         LINE#         85
  C:07CEH         LINE#         86
  C:07DEH         LINE#         87
  C:07DEH         LINE#         89
  C:07DEH         LINE#         91
  C:07DEH         LINE#         92
  C:07E0H         LINE#         93
  C:07E2H         LINE#         94
  C:07E5H         LINE#         95
  C:07E5H         LINE#         96
  C:07E5H         LINE#         97
  C:07EBH         LINE#         98
  C:07EBH         LINE#         99
  C:07EDH         LINE#         100
BL51 BANKED LINKER/LOCATER V6.22.2.0                                                  03/13/2023  13:34:15  PAGE 23


  C:07EFH         LINE#         101
  C:07F0H         LINE#         102
  C:07F0H         LINE#         103
  C:07F4H         LINE#         104
  -------         ENDPROC       PASSWORDCMD
  -------         PROC          PASSWORDRESET
  C:0A68H         LINE#         106
  C:0A68H         LINE#         107
  C:0A68H         LINE#         108
  C:0A6BH         LINE#         109
  C:0A6EH         LINE#         110
  C:0A71H         LINE#         111
  C:0A74H         LINE#         112
  C:0A77H         LINE#         113
  C:0A7AH         LINE#         115
  C:0A7DH         LINE#         116
  C:0A7FH         LINE#         117
  -------         ENDPROC       PASSWORDRESET
  -------         PROC          PASSWORDBUFFRESET
  C:0A35H         LINE#         119
  C:0A35H         LINE#         120
  C:0A35H         LINE#         121
  C:0A38H         LINE#         122
  C:0A3BH         LINE#         123
  C:0A3EH         LINE#         124
  C:0A41H         LINE#         125
  C:0A44H         LINE#         126
  C:0A47H         LINE#         128
  C:0A49H         LINE#         129
  C:0A4CH         LINE#         130
  C:0A4EH         LINE#         131
  -------         ENDPROC       PASSWORDBUFFRESET
  -------         PROC          _HC138Y
  D:0007H         SYMBOL        Y
  C:0B29H         LINE#         133
  C:0B29H         LINE#         134
  C:0B29H         LINE#         135
  C:0B2CH         LINE#         136
  C:0B35H         LINE#         137
  -------         ENDPROC       _HC138Y
  -------         PROC          LEDBUZZINIT
  C:0A97H         LINE#         139
  C:0A97H         LINE#         140
  C:0A97H         LINE#         141
  C:0A9AH         LINE#         142
  C:0A9FH         LINE#         143
  C:0AA2H         LINE#         144
  C:0AA7H         LINE#         145
  C:0AAAH         LINE#         146
  -------         ENDPROC       LEDBUZZINIT
  -------         PROC          TIMER0INIT
  C:0AAEH         LINE#         150
  C:0AAEH         LINE#         151
  C:0AAEH         LINE#         152
  C:0AB1H         LINE#         153
  C:0AB4H         LINE#         154
  C:0AB7H         LINE#         155
BL51 BANKED LINKER/LOCATER V6.22.2.0                                                  03/13/2023  13:34:15  PAGE 24


  C:0ABAH         LINE#         156
  C:0ABCH         LINE#         157
  C:0ABEH         LINE#         158
  C:0AC0H         LINE#         159
  C:0AC2H         LINE#         160
  -------         ENDPROC       TIMER0INIT
  -------         ENDMOD        INIT

  -------         MODULE        ?C?FPMUL
  C:000EH         PUBLIC        ?C?FPMUL
  -------         ENDMOD        ?C?FPMUL

  -------         MODULE        ?C?FPCMP
  C:0116H         PUBLIC        ?C?FPCMP
  C:0114H         PUBLIC        ?C?FPCMP3
  -------         ENDMOD        ?C?FPCMP

  -------         MODULE        ?C?FCAST
  C:0197H         PUBLIC        ?C?FCASTC
  C:0192H         PUBLIC        ?C?FCASTI
  C:018DH         PUBLIC        ?C?FCASTL
  -------         ENDMOD        ?C?FCAST

  -------         MODULE        ?C?UIDIV
  C:0215H         PUBLIC        ?C?UIDIV
  -------         ENDMOD        ?C?UIDIV

  -------         MODULE        ?C?LNEG
  C:026AH         PUBLIC        ?C?LNEG
  -------         ENDMOD        ?C?LNEG

Program Size: data=107.1 xdata=0 code=2926
LINK/LOCATE RUN COMPLETE.  0 WARNING(S),  0 ERROR(S)
